target datalayout = "e-m:e-p270:32:32-p271:32:32-p272:64:64-i64:64-i128:128-f80:128-n8:16:32:64-S128"
target triple = "x86_64-unknown-linux-gnu"

%"class.net::QuicSentPacketManager" = type { %"class.net::QuicSentPacketManagerInterface", %"class.net::QuicUnackedPacketMap", %class.linked_hash_map, i32, i8, ptr, ptr, ptr, ptr, ptr, i64, %"class.net::RttStats", %"class.std::unique_ptr", ptr, %"class.net::GeneralLossAlgorithm", i8, i64, i64, i64, i64, i64, i64, i64, i64, i8, i8, i8, i8, %"class.std::vector", %"class.std::vector", i64, i16, [6 x i8], %"class.net::PacingSender", i8, %"class.net::QuicSustainedBandwidthRecorder" }
%"class.net::QuicSentPacketManagerInterface" = type { ptr }
%"class.net::QuicUnackedPacketMap" = type { i64, i64, %"class.std::deque", i64, i64, i64 }
%"class.std::deque" = type { %"class.std::_Deque_base" }
%"class.std::_Deque_base" = type { %"struct.std::_Deque_base<net::TransmissionInfo, std::allocator<net::TransmissionInfo>>::_Deque_impl" }
%"struct.std::_Deque_base<net::TransmissionInfo, std::allocator<net::TransmissionInfo>>::_Deque_impl" = type { %"struct.std::_Deque_base<net::TransmissionInfo, std::allocator<net::TransmissionInfo>>::_Deque_impl_data" }
%"struct.std::_Deque_base<net::TransmissionInfo, std::allocator<net::TransmissionInfo>>::_Deque_impl_data" = type { ptr, i64, %"struct.std::_Deque_iterator", %"struct.std::_Deque_iterator" }
%"struct.std::_Deque_iterator" = type { ptr, ptr, ptr, ptr }
%class.linked_hash_map = type { %"class.std::unordered_map", %"class.std::__cxx11::list" }
%"class.std::unordered_map" = type { %"class.std::_Hashtable" }
%"class.std::_Hashtable" = type { ptr, i64, %"struct.std::__detail::_Hash_node_base", i64, %"struct.std::__detail::_Prime_rehash_policy", ptr }
%"struct.std::__detail::_Hash_node_base" = type { ptr }
%"struct.std::__detail::_Prime_rehash_policy" = type { float, i64 }
%"class.std::__cxx11::list" = type { %"class.std::__cxx11::_List_base" }
%"class.std::__cxx11::_List_base" = type { %"struct.std::__cxx11::_List_base<std::pair<unsigned long, net::TransmissionType>, std::allocator<std::pair<unsigned long, net::TransmissionType>>>::_List_impl" }
%"struct.std::__cxx11::_List_base<std::pair<unsigned long, net::TransmissionType>, std::allocator<std::pair<unsigned long, net::TransmissionType>>>::_List_impl" = type { %"struct.std::__detail::_List_node_header" }
%"struct.std::__detail::_List_node_header" = type { %"struct.std::__detail::_List_node_base", i64 }
%"struct.std::__detail::_List_node_base" = type { ptr, ptr }
%"class.net::RttStats" = type { %"class.net::QuicTime::Delta", %"class.net::QuicTime::Delta", %"class.net::QuicTime::Delta", %"class.net::QuicTime::Delta", %"class.net::QuicTime::Delta", i64, %"class.net::QuicTime::Delta", %"class.net::QuicTime", i32, %"class.net::WindowedFilter" }
%"class.net::QuicTime::Delta" = type { %"class.base::TimeDelta", i64 }
%"class.base::TimeDelta" = type { i64 }
%"class.net::QuicTime" = type { i64 }
%"class.net::WindowedFilter" = type { %"class.net::QuicTime::Delta", %"class.net::QuicTime::Delta", [3 x %"struct.net::WindowedFilter<net::QuicTime::Delta, net::MinFilter<net::QuicTime::Delta>, net::QuicTime, net::QuicTime::Delta>::Sample"] }
%"struct.net::WindowedFilter<net::QuicTime::Delta, net::MinFilter<net::QuicTime::Delta>, net::QuicTime, net::QuicTime::Delta>::Sample" = type { %"class.net::QuicTime::Delta", %"class.net::QuicTime" }
%"class.std::unique_ptr" = type { %"struct.std::__uniq_ptr_data" }
%"struct.std::__uniq_ptr_data" = type { %"class.std::__uniq_ptr_impl" }
%"class.std::__uniq_ptr_impl" = type { %"class.std::tuple" }
%"class.std::tuple" = type { %"struct.std::_Tuple_impl" }
%"struct.std::_Tuple_impl" = type { %"struct.std::_Head_base.9" }
%"struct.std::_Head_base.9" = type { ptr }
%"class.net::GeneralLossAlgorithm" = type { %"class.net::LossDetectionInterface", %"class.net::QuicTime", i64, i32, i32 }
%"class.net::LossDetectionInterface" = type { ptr }
%"class.std::vector" = type { %"struct.std::_Vector_base" }
%"struct.std::_Vector_base" = type { %"struct.std::_Vector_base<std::pair<unsigned long, unsigned short>, std::allocator<std::pair<unsigned long, unsigned short>>>::_Vector_impl" }
%"struct.std::_Vector_base<std::pair<unsigned long, unsigned short>, std::allocator<std::pair<unsigned long, unsigned short>>>::_Vector_impl" = type { %"struct.std::_Vector_base<std::pair<unsigned long, unsigned short>, std::allocator<std::pair<unsigned long, unsigned short>>>::_Vector_impl_data" }
%"struct.std::_Vector_base<std::pair<unsigned long, unsigned short>, std::allocator<std::pair<unsigned long, unsigned short>>>::_Vector_impl_data" = type { ptr, ptr, ptr }
%"class.net::PacingSender" = type <{ ptr, %"class.net::QuicBandwidth", i32, [4 x i8], %"class.net::QuicTime", %"class.net::QuicTime", i8, [7 x i8] }>
%"class.net::QuicBandwidth" = type { i64 }
%"class.net::QuicSustainedBandwidthRecorder" = type { i8, i8, i8, %"class.net::QuicBandwidth", %"class.net::QuicBandwidth", i64, %"class.net::QuicTime" }

; Function Attrs: mustprogress nounwind uwtable
define linkonce_odr dso_local noundef nonnull align 8 dereferenceable(8) ptr @_ZNSt10_Head_baseILm0EPN3net22SendAlgorithmInterfaceELb0EE7_M_headERKS3_(ptr noundef nonnull align 8 dereferenceable(8) %__b) #1 comdat align 2 {
entry:
  %__b.addr = alloca ptr, align 8
  store ptr %__b, ptr %__b.addr, align 8
  %0 = load ptr, ptr %__b.addr, align 8
  %_M_head_impl = getelementptr inbounds %"struct.std::_Head_base.9", ptr %0, i32 0, i32 0
  ret ptr %_M_head_impl
}

; Function Attrs: mustprogress nounwind uwtable
define linkonce_odr dso_local noundef nonnull align 8 dereferenceable(8) ptr @_ZNSt11_Tuple_implILm0EJPN3net22SendAlgorithmInterfaceESt14default_deleteIS1_EEE7_M_headERKS5_(ptr noundef nonnull align 8 dereferenceable(8) %__t) #1 comdat align 2 {
entry:
  %__t.addr = alloca ptr, align 8
  store ptr %__t, ptr %__t.addr, align 8
  %0 = load ptr, ptr %__t.addr, align 8
  %call = call noundef nonnull align 8 dereferenceable(8) ptr @_ZNSt10_Head_baseILm0EPN3net22SendAlgorithmInterfaceELb0EE7_M_headERKS3_(ptr noundef nonnull align 8 dereferenceable(8) %0) #11
  ret ptr %call
}

; Function Attrs: mustprogress nounwind uwtable
define linkonce_odr dso_local noundef nonnull align 8 dereferenceable(8) ptr @_ZSt12__get_helperILm0EPN3net22SendAlgorithmInterfaceEJSt14default_deleteIS1_EEERKT0_RKSt11_Tuple_implIXT_EJS5_DpT1_EE(ptr noundef nonnull align 8 dereferenceable(8) %__t) #1 comdat {
entry:
  %__t.addr = alloca ptr, align 8
  store ptr %__t, ptr %__t.addr, align 8
  %0 = load ptr, ptr %__t.addr, align 8
  %call = call noundef nonnull align 8 dereferenceable(8) ptr @_ZNSt11_Tuple_implILm0EJPN3net22SendAlgorithmInterfaceESt14default_deleteIS1_EEE7_M_headERKS5_(ptr noundef nonnull align 8 dereferenceable(8) %0) #11
  ret ptr %call
}

; Function Attrs: mustprogress nounwind uwtable
define linkonce_odr dso_local noundef nonnull align 8 dereferenceable(8) ptr @_ZSt3getILm0EJPN3net22SendAlgorithmInterfaceESt14default_deleteIS1_EEERKNSt13tuple_elementIXT_ESt5tupleIJDpT0_EEE4typeERKS9_(ptr noundef nonnull align 8 dereferenceable(8) %__t) #1 comdat {
entry:
  %__t.addr = alloca ptr, align 8
  store ptr %__t, ptr %__t.addr, align 8
  %0 = load ptr, ptr %__t.addr, align 8
  %call = call noundef nonnull align 8 dereferenceable(8) ptr @_ZSt12__get_helperILm0EPN3net22SendAlgorithmInterfaceEJSt14default_deleteIS1_EEERKT0_RKSt11_Tuple_implIXT_EJS5_DpT1_EE(ptr noundef nonnull align 8 dereferenceable(8) %0) #11
  ret ptr %call
}

; Function Attrs: mustprogress nounwind uwtable
define linkonce_odr dso_local noundef ptr @_ZNKSt15__uniq_ptr_implIN3net22SendAlgorithmInterfaceESt14default_deleteIS1_EE6_M_ptrEv(ptr noundef nonnull align 8 dereferenceable(8) %this) #1 comdat align 2 {
entry:
  %this.addr = alloca ptr, align 8
  store ptr %this, ptr %this.addr, align 8
  %this1 = load ptr, ptr %this.addr, align 8
  %_M_t = getelementptr inbounds %"class.std::__uniq_ptr_impl", ptr %this1, i32 0, i32 0
  %call = call noundef nonnull align 8 dereferenceable(8) ptr @_ZSt3getILm0EJPN3net22SendAlgorithmInterfaceESt14default_deleteIS1_EEERKNSt13tuple_elementIXT_ESt5tupleIJDpT0_EEE4typeERKS9_(ptr noundef nonnull align 8 dereferenceable(8) %_M_t) #11
  %0 = load ptr, ptr %call, align 8
  ret ptr %0
}

; Function Attrs: mustprogress nounwind uwtable
define linkonce_odr dso_local void @_ZN4base9TimeDeltaC2Ev(ptr noundef nonnull align 8 dereferenceable(8) %this) unnamed_addr #1 comdat align 2 {
entry:
  %this.addr = alloca ptr, align 8
  store ptr %this, ptr %this.addr, align 8
  %this1 = load ptr, ptr %this.addr, align 8
  %delta_ = getelementptr inbounds %"class.base::TimeDelta", ptr %this1, i32 0, i32 0
  store i64 0, ptr %delta_, align 8
  ret void
}

; Function Attrs: mustprogress nounwind uwtable
define linkonce_odr dso_local noundef ptr @_ZNKSt10unique_ptrIN3net22SendAlgorithmInterfaceESt14default_deleteIS1_EE3getEv(ptr noundef nonnull align 8 dereferenceable(8) %this) #1 comdat align 2 {
entry:
  %this.addr = alloca ptr, align 8
  store ptr %this, ptr %this.addr, align 8
  %this1 = load ptr, ptr %this.addr, align 8
  %_M_t = getelementptr inbounds %"class.std::unique_ptr", ptr %this1, i32 0, i32 0
  %call = call noundef ptr @_ZNKSt15__uniq_ptr_implIN3net22SendAlgorithmInterfaceESt14default_deleteIS1_EE6_M_ptrEv(ptr noundef nonnull align 8 dereferenceable(8) %_M_t) #11
  ret ptr %call
}

; Function Attrs: mustprogress nounwind uwtable
define linkonce_odr dso_local noundef nonnull align 8 dereferenceable(8) ptr @_ZN4base9TimeDeltaaSES0_(ptr noundef nonnull align 8 dereferenceable(8) %this, i64 %other.coerce) #1 comdat align 2 {
entry:
  %other = alloca %"class.base::TimeDelta", align 8
  %this.addr = alloca ptr, align 8
  %coerce.dive = getelementptr inbounds %"class.base::TimeDelta", ptr %other, i32 0, i32 0
  store i64 %other.coerce, ptr %coerce.dive, align 8
  store ptr %this, ptr %this.addr, align 8
  %this1 = load ptr, ptr %this.addr, align 8
  %delta_ = getelementptr inbounds %"class.base::TimeDelta", ptr %other, i32 0, i32 0
  %0 = load i64, ptr %delta_, align 8
  %delta_2 = getelementptr inbounds %"class.base::TimeDelta", ptr %this1, i32 0, i32 0
  store i64 %0, ptr %delta_2, align 8
  ret ptr %this1
}

; Function Attrs: mustprogress uwtable
define linkonce_odr dso_local void @_ZN3net8QuicTime5DeltaC2El(ptr noundef nonnull align 8 dereferenceable(16) %this, i64 noundef %time_offset) unnamed_addr #0 comdat align 2 {
entry:
  %this.addr = alloca ptr, align 8
  %time_offset.addr = alloca i64, align 8
  store ptr %this, ptr %this.addr, align 8
  store i64 %time_offset, ptr %time_offset.addr, align 8
  %this1 = load ptr, ptr %this.addr, align 8
  %delta_ = getelementptr inbounds %"class.net::QuicTime::Delta", ptr %this1, i32 0, i32 0
  call void @_ZN4base9TimeDeltaC2Ev(ptr noundef nonnull align 8 dereferenceable(8) %delta_)
  %time_offset_ = getelementptr inbounds %"class.net::QuicTime::Delta", ptr %this1, i32 0, i32 1
  %0 = load i64, ptr %time_offset.addr, align 8
  store i64 %0, ptr %time_offset_, align 8
  ret void
}

; Function Attrs: mustprogress nounwind uwtable
define linkonce_odr dso_local noundef zeroext i1 @_ZNK3net8QuicTime5Delta10IsInfiniteEv(ptr noundef nonnull align 8 dereferenceable(16) %this) #1 comdat align 2 {
entry:
  %this.addr = alloca ptr, align 8
  store ptr %this, ptr %this.addr, align 8
  %this1 = load ptr, ptr %this.addr, align 8
  %time_offset_ = getelementptr inbounds %"class.net::QuicTime::Delta", ptr %this1, i32 0, i32 1
  %0 = load i64, ptr %time_offset_, align 8
  %cmp = icmp eq i64 %0, 9223372036854775807
  ret i1 %cmp
}

; Function Attrs: mustprogress nounwind uwtable
define linkonce_odr dso_local noundef ptr @_ZNKSt10unique_ptrIN3net22SendAlgorithmInterfaceESt14default_deleteIS1_EEptEv(ptr noundef nonnull align 8 dereferenceable(8) %this) #1 comdat align 2 {
entry:
  %this.addr = alloca ptr, align 8
  store ptr %this, ptr %this.addr, align 8
  %this1 = load ptr, ptr %this.addr, align 8
  %call = call noundef ptr @_ZNKSt10unique_ptrIN3net22SendAlgorithmInterfaceESt14default_deleteIS1_EE3getEv(ptr noundef nonnull align 8 dereferenceable(8) %this1) #11
  ret ptr %call
}

; Function Attrs: mustprogress nounwind uwtable
define linkonce_odr dso_local noundef i64 @_ZNK3net20QuicUnackedPacketMap15bytes_in_flightEv(ptr noundef nonnull align 8 dereferenceable(120) %this) #1 comdat align 2 {
entry:
  %this.addr = alloca ptr, align 8
  store ptr %this, ptr %this.addr, align 8
  %this1 = load ptr, ptr %this.addr, align 8
  %bytes_in_flight_ = getelementptr inbounds %"class.net::QuicUnackedPacketMap", ptr %this1, i32 0, i32 4
  %0 = load i64, ptr %bytes_in_flight_, align 8
  ret i64 %0
}

; Function Attrs: mustprogress uwtable
define linkonce_odr dso_local noundef nonnull align 8 dereferenceable(16) ptr @_ZN3net8QuicTime5DeltaaSEOS1_(ptr noundef nonnull align 8 dereferenceable(16) %this, ptr noundef nonnull align 8 dereferenceable(16) %0) #0 comdat align 2 {
entry:
  %this.addr = alloca ptr, align 8
  %.addr = alloca ptr, align 8
  %agg.tmp = alloca %"class.base::TimeDelta", align 8
  store ptr %this, ptr %this.addr, align 8
  store ptr %0, ptr %.addr, align 8
  %this1 = load ptr, ptr %this.addr, align 8
  %delta_ = getelementptr inbounds %"class.net::QuicTime::Delta", ptr %this1, i32 0, i32 0
  %1 = load ptr, ptr %.addr, align 8
  %delta_2 = getelementptr inbounds %"class.net::QuicTime::Delta", ptr %1, i32 0, i32 0
  call void @llvm.memcpy.p0.p0.i64(ptr align 8 %agg.tmp, ptr align 8 %delta_2, i64 8, i1 false)
  %coerce.dive = getelementptr inbounds %"class.base::TimeDelta", ptr %agg.tmp, i32 0, i32 0
  %2 = load i64, ptr %coerce.dive, align 8
  %call = call noundef nonnull align 8 dereferenceable(8) ptr @_ZN4base9TimeDeltaaSES0_(ptr noundef nonnull align 8 dereferenceable(8) %delta_, i64 %2)
  %3 = load ptr, ptr %.addr, align 8
  %time_offset_ = getelementptr inbounds %"class.net::QuicTime::Delta", ptr %3, i32 0, i32 1
  %4 = load i64, ptr %time_offset_, align 8
  %time_offset_3 = getelementptr inbounds %"class.net::QuicTime::Delta", ptr %this1, i32 0, i32 1
  store i64 %4, ptr %time_offset_3, align 8
  ret ptr %this1
}

; Function Attrs: mustprogress uwtable
define linkonce_odr dso_local { i64, i64 } @_ZN3net8QuicTime5Delta4ZeroEv() #0 comdat align 2 {
entry:
  %retval = alloca %"class.net::QuicTime::Delta", align 8
  call void @_ZN3net8QuicTime5DeltaC2El(ptr noundef nonnull align 8 dereferenceable(16) %retval, i64 noundef 0)
  %0 = load { i64, i64 }, ptr %retval, align 8
  ret { i64, i64 } %0
}

; Function Attrs: mustprogress uwtable
define linkonce_odr dso_local { i64, i64 } @_ZN3net8QuicTime5Delta8InfiniteEv() #0 comdat align 2 {
entry:
  %retval = alloca %"class.net::QuicTime::Delta", align 8
  call void @_ZN3net8QuicTime5DeltaC2El(ptr noundef nonnull align 8 dereferenceable(16) %retval, i64 noundef 9223372036854775807)
  %0 = load { i64, i64 }, ptr %retval, align 8
  ret { i64, i64 } %0
}

; Function Attrs: mustprogress uwtable
define dso_local { i64, i64 } @_ZN3net21QuicSentPacketManager13TimeUntilSendENS_8QuicTimeEPh(ptr noundef nonnull align 8 dereferenceable(776) %this, i64 %now.coerce, ptr noundef %path_id) unnamed_addr #0 align 2 {
entry:
  %retval = alloca %"class.net::QuicTime::Delta", align 8
  %now = alloca %"class.net::QuicTime", align 8
  %this.addr = alloca ptr, align 8
  %path_id.addr = alloca ptr, align 8
  %ref.tmp = alloca %"class.net::QuicTime::Delta", align 8
  %ref.tmp5 = alloca %"class.net::QuicTime::Delta", align 8
  %agg.tmp = alloca %"class.net::QuicTime", align 8
  %ref.tmp11 = alloca %"class.net::QuicTime::Delta", align 8
  %agg.tmp13 = alloca %"class.net::QuicTime", align 8
  %coerce.dive = getelementptr inbounds %"class.net::QuicTime", ptr %now, i32 0, i32 0
  store i64 %now.coerce, ptr %coerce.dive, align 8
  store ptr %this, ptr %this.addr, align 8
  store ptr %path_id, ptr %path_id.addr, align 8
  %this1 = load ptr, ptr %this.addr, align 8
  %call = call { i64, i64 } @_ZN3net8QuicTime5Delta8InfiniteEv()
  %0 = getelementptr inbounds { i64, i64 }, ptr %retval, i32 0, i32 0
  %1 = extractvalue { i64, i64 } %call, 0
  store i64 %1, ptr %0, align 8
  %2 = getelementptr inbounds { i64, i64 }, ptr %retval, i32 0, i32 1
  %3 = extractvalue { i64, i64 } %call, 1
  store i64 %3, ptr %2, align 8
  %pending_timer_transmission_count_ = getelementptr inbounds %"class.net::QuicSentPacketManager", ptr %this1, i32 0, i32 22
  %4 = load i64, ptr %pending_timer_transmission_count_, align 8
  %cmp = icmp ugt i64 %4, 0
  br i1 %cmp, label %if.then, label %if.else

if.then:                                          ; preds = %entry
  %call2 = call { i64, i64 } @_ZN3net8QuicTime5Delta4ZeroEv()
  %5 = getelementptr inbounds { i64, i64 }, ptr %ref.tmp, i32 0, i32 0
  %6 = extractvalue { i64, i64 } %call2, 0
  store i64 %6, ptr %5, align 8
  %7 = getelementptr inbounds { i64, i64 }, ptr %ref.tmp, i32 0, i32 1
  %8 = extractvalue { i64, i64 } %call2, 1
  store i64 %8, ptr %7, align 8
  %call3 = call noundef nonnull align 8 dereferenceable(16) ptr @_ZN3net8QuicTime5DeltaaSEOS1_(ptr noundef nonnull align 8 dereferenceable(16) %retval, ptr noundef nonnull align 8 dereferenceable(16) %ref.tmp)
  br label %if.end19

if.else:                                          ; preds = %entry
  %using_pacing_ = getelementptr inbounds %"class.net::QuicSentPacketManager", ptr %this1, i32 0, i32 25
  %9 = load i8, ptr %using_pacing_, align 1
  %tobool = trunc i8 %9 to i1
  br i1 %tobool, label %if.then4, label %if.else10

if.then4:                                         ; preds = %if.else
  %pacing_sender_ = getelementptr inbounds %"class.net::QuicSentPacketManager", ptr %this1, i32 0, i32 33
  call void @llvm.memcpy.p0.p0.i64(ptr align 8 %agg.tmp, ptr align 8 %now, i64 8, i1 false)
  %unacked_packets_ = getelementptr inbounds %"class.net::QuicSentPacketManager", ptr %this1, i32 0, i32 1
  %call6 = call noundef i64 @_ZNK3net20QuicUnackedPacketMap15bytes_in_flightEv(ptr noundef nonnull align 8 dereferenceable(120) %unacked_packets_)
  %coerce.dive7 = getelementptr inbounds %"class.net::QuicTime", ptr %agg.tmp, i32 0, i32 0
  %10 = load i64, ptr %coerce.dive7, align 8
  %call8 = call { i64, i64 } @_ZNK3net12PacingSender13TimeUntilSendENS_8QuicTimeEm(ptr noundef nonnull align 8 dereferenceable(41) %pacing_sender_, i64 %10, i64 noundef %call6)
  %11 = getelementptr inbounds { i64, i64 }, ptr %ref.tmp5, i32 0, i32 0
  %12 = extractvalue { i64, i64 } %call8, 0
  store i64 %12, ptr %11, align 8
  %13 = getelementptr inbounds { i64, i64 }, ptr %ref.tmp5, i32 0, i32 1
  %14 = extractvalue { i64, i64 } %call8, 1
  store i64 %14, ptr %13, align 8
  %call9 = call noundef nonnull align 8 dereferenceable(16) ptr @_ZN3net8QuicTime5DeltaaSEOS1_(ptr noundef nonnull align 8 dereferenceable(16) %retval, ptr noundef nonnull align 8 dereferenceable(16) %ref.tmp5)
  br label %if.end

if.else10:                                        ; preds = %if.else
  %send_algorithm_ = getelementptr inbounds %"class.net::QuicSentPacketManager", ptr %this1, i32 0, i32 12
  %call12 = call noundef ptr @_ZNKSt10unique_ptrIN3net22SendAlgorithmInterfaceESt14default_deleteIS1_EEptEv(ptr noundef nonnull align 8 dereferenceable(8) %send_algorithm_) #11
  call void @llvm.memcpy.p0.p0.i64(ptr align 8 %agg.tmp13, ptr align 8 %now, i64 8, i1 false)
  %unacked_packets_14 = getelementptr inbounds %"class.net::QuicSentPacketManager", ptr %this1, i32 0, i32 1
  %call15 = call noundef i64 @_ZNK3net20QuicUnackedPacketMap15bytes_in_flightEv(ptr noundef nonnull align 8 dereferenceable(120) %unacked_packets_14)
  %coerce.dive16 = getelementptr inbounds %"class.net::QuicTime", ptr %agg.tmp13, i32 0, i32 0
  %15 = load i64, ptr %coerce.dive16, align 8
  %vtable = load ptr, ptr %call12, align 8
  %vfn = getelementptr inbounds ptr, ptr %vtable, i64 8
  %16 = load ptr, ptr %vfn, align 8
  %call17 = call { i64, i64 } %16(ptr noundef nonnull align 8 dereferenceable(8) %call12, i64 %15, i64 noundef %call15)
  %17 = getelementptr inbounds { i64, i64 }, ptr %ref.tmp11, i32 0, i32 0
  %18 = extractvalue { i64, i64 } %call17, 0
  store i64 %18, ptr %17, align 8
  %19 = getelementptr inbounds { i64, i64 }, ptr %ref.tmp11, i32 0, i32 1
  %20 = extractvalue { i64, i64 } %call17, 1
  store i64 %20, ptr %19, align 8
  %call18 = call noundef nonnull align 8 dereferenceable(16) ptr @_ZN3net8QuicTime5DeltaaSEOS1_(ptr noundef nonnull align 8 dereferenceable(16) %retval, ptr noundef nonnull align 8 dereferenceable(16) %ref.tmp11)
  br label %if.end

if.end:                                           ; preds = %if.else10, %if.then4
  br label %if.end19

if.end19:                                         ; preds = %if.end, %if.then
  %call20 = call noundef zeroext i1 @_ZNK3net8QuicTime5Delta10IsInfiniteEv(ptr noundef nonnull align 8 dereferenceable(16) %retval)
  br i1 %call20, label %if.end22, label %if.then21

if.then21:                                        ; preds = %if.end19
  %path_id_ = getelementptr inbounds %"class.net::QuicSentPacketManager", ptr %this1, i32 0, i32 4
  %21 = load i8, ptr %path_id_, align 4
  %22 = load ptr, ptr %path_id.addr, align 8
  store i8 %21, ptr %22, align 1
  br label %if.end22

if.end22:                                         ; preds = %if.then21, %if.end19
  %23 = load { i64, i64 }, ptr %retval, align 8
  ret { i64, i64 } %23
}