; Function Attrs: mustprogress uwtable
define dso_local { i64, i64 } @_ZN3net21QuicSentPacketManager13TimeUntilSendENS_8QuicTimeEPh(ptr noundef nonnull align 8 dereferenceable(776) %this, i64 %now.coerce, ptr nocapture noundef writeonly %path_id) unnamed_addr #0 align 2 {
entry:
  %pending_timer_transmission_count_ = getelementptr inbounds i8, ptr %this, i64 592
  %0 = load i64, ptr %pending_timer_transmission_count_, align 8
  %cmp.not = icmp eq i64 %0, 0
  br i1 %cmp.not, label %if.else, label %if.then21

if.else:                                          ; preds = %entry
  %using_pacing_ = getelementptr inbounds i8, ptr %this, i64 609
  %1 = load i8, ptr %using_pacing_, align 1
  %2 = and i8 %1, 1
  %tobool.not = icmp eq i8 %2, 0
  br i1 %tobool.not, label %if.else10, label %if.then4

if.then4:                                         ; preds = %if.else
  %pacing_sender_ = getelementptr inbounds i8, ptr %this, i64 680
  %bytes_in_flight_.i = getelementptr inbounds i8, ptr %this, i64 112
  %3 = load i64, ptr %bytes_in_flight_.i, align 8
  %call8 = tail call { i64, i64 } @_ZNK3net12PacingSender13TimeUntilSendENS_8QuicTimeEm(ptr noundef nonnull align 8 dereferenceable(41) %pacing_sender_, i64 %now.coerce, i64 noundef %3)
  br label %if.end19

if.else10:                                        ; preds = %if.else
  %send_algorithm_ = getelementptr inbounds i8, ptr %this, i64 488
  %4 = load ptr, ptr %send_algorithm_, align 8
  %bytes_in_flight_.i5 = getelementptr inbounds i8, ptr %this, i64 112
  %5 = load i64, ptr %bytes_in_flight_.i5, align 8
  %vtable = load ptr, ptr %4, align 8
  %vfn = getelementptr inbounds i8, ptr %vtable, i64 64
  %6 = load ptr, ptr %vfn, align 8
  %call17 = tail call { i64, i64 } %6(ptr noundef nonnull align 8 dereferenceable(8) %4, i64 %now.coerce, i64 noundef %5)
  br label %if.end19

if.end19:                                         ; preds = %if.then4, %if.else10
  %call17.pn = phi { i64, i64 } [ %call17, %if.else10 ], [ %call8, %if.then4 ]
  %retval.sroa.5.0 = extractvalue { i64, i64 } %call17.pn, 1
  %retval.sroa.0.0 = extractvalue { i64, i64 } %call17.pn, 0
  %cmp.i = icmp eq i64 %retval.sroa.5.0, 9223372036854775807
  br i1 %cmp.i, label %if.end22, label %if.then21

if.then21:                                        ; preds = %entry, %if.end19
  %retval.sroa.5.016 = phi i64 [ %retval.sroa.5.0, %if.end19 ], [ 0, %entry ]
  %retval.sroa.0.014 = phi i64 [ %retval.sroa.0.0, %if.end19 ], [ 0, %entry ]
  %path_id_ = getelementptr inbounds i8, ptr %this, i64 212
  %7 = load i8, ptr %path_id_, align 4
  store i8 %7, ptr %path_id, align 1
  br label %if.end22

if.end22:                                         ; preds = %if.then21, %if.end19
  %retval.sroa.5.017 = phi i64 [ %retval.sroa.5.016, %if.then21 ], [ 9223372036854775807, %if.end19 ]
  %retval.sroa.0.015 = phi i64 [ %retval.sroa.0.014, %if.then21 ], [ %retval.sroa.0.0, %if.end19 ]
  %.fca.0.insert = insertvalue { i64, i64 } poison, i64 %retval.sroa.0.015, 0
  %.fca.1.insert = insertvalue { i64, i64 } %.fca.0.insert, i64 %retval.sroa.5.017, 1
  ret { i64, i64 } %.fca.1.insert
}